; Function Attrs: mustprogress uwtable
define dso_local void @_ZN19DFSProgramGenerator10initializeEv(ptr nocapture noundef nonnull align 8 dereferenceable(48) %0) unnamed_addr #3 align 2 {
  %2 = getelementptr inbounds i8, ptr %0, i64 24
  %3 = load i64, ptr %2, align 8
  tail call void @_ZN12RandomNumber14CreateInstanceE16RNDNUM_GENERATORm(i32 noundef 1, i64 noundef %3)
  %4 = tail call noundef ptr @_ZN12DFSOutputMgr14CreateInstanceEv()
  %5 = getelementptr inbounds i8, ptr %0, i64 40
  store ptr %4, ptr %5, align 8
  ret void
}